; Function Attrs: mustprogress nofree norecurse nosync nounwind willreturn memory(argmem: write) uwtable
define hidden noundef ptr @_Z33pj_projection_specific_setup_cartP8PJconsts(ptr noundef returned writeonly initializes((104, 136), (380, 388)) %0) local_unnamed_addr #1 {
  %2 = getelementptr inbounds nuw i8, ptr %0, i64 120
  store ptr @_ZL9cartesian6PJ_LPZP8PJconsts, ptr %2, align 8, !tbaa !3
  %3 = getelementptr inbounds nuw i8, ptr %0, i64 128
  store ptr @_ZL8geodetic6PJ_XYZP8PJconsts, ptr %3, align 8, !tbaa !36
  %4 = getelementptr inbounds nuw i8, ptr %0, i64 104
  store ptr @_ZL12cart_forward5PJ_LPP8PJconsts, ptr %4, align 8, !tbaa !37
  %5 = getelementptr inbounds nuw i8, ptr %0, i64 112
  store ptr @_ZL12cart_reverse5PJ_XYP8PJconsts, ptr %5, align 8, !tbaa !38
  %6 = getelementptr inbounds nuw i8, ptr %0, i64 380
  store i32 4, ptr %6, align 4, !tbaa !42
  %7 = getelementptr inbounds nuw i8, ptr %0, i64 384
  store i32 3, ptr %7, align 8, !tbaa !43
  ret ptr %0
}